Certificate:
    Data:
        Version: 3 (0x2)
        Serial Number:
            44:cd:86:9e:34:1b:4a:49:00:16:10:74:86:db:85:91
        Signature Algorithm: sha256WithRSAEncryption
        Issuer: CN=scada
        Validity
            Not Before: May 23 15:18:48 2021 GMT
            Not After : May  7 15:18:48 2024 GMT
        Subject: CN=scada
        Subject Public Key Info:
            Public Key Algorithm: rsaEncryption
                RSA Public-Key: (2048 bit)
                Modulus:
                    00:e5:e8:48:54:b3:c1:79:5d:03:98:ce:78:10:23:
                    6d:d3:05:e8:6e:51:87:c2:14:50:74:04:fd:3d:78:
                    f5:a5:d1:21:b8:97:e3:11:de:ff:87:aa:89:74:b6:
                    86:33:e8:42:0b:c7:52:01:e1:df:c2:30:f1:26:63:
                    e1:a0:d1:e6:4e:c2:e5:e4:72:d4:0c:df:4a:4a:6d:
                    8b:d2:d5:53:22:24:77:40:ca:81:9e:e9:bc:e5:a3:
                    34:77:e7:64:4d:aa:7a:8f:05:b0:3e:58:0b:66:4f:
                    f9:20:65:67:56:75:b1:ce:a8:fb:10:90:58:ef:df:
                    96:5e:66:6d:1b:c9:25:6e:7f:09:9a:6d:ec:51:78:
                    de:02:2a:71:30:be:27:f8:51:cf:95:59:bd:5c:5c:
                    46:fe:f8:91:54:a4:84:48:ef:ed:92:b2:4a:83:de:
                    6f:94:2d:d3:04:37:19:13:90:32:47:6e:6a:50:dc:
                    a9:f9:05:64:af:c8:3e:02:13:03:49:57:e6:6d:f3:
                    dc:c7:ec:87:84:e8:7b:f2:47:11:30:8d:99:1b:cc:
                    9d:d2:87:32:3a:56:e0:49:aa:54:5a:5c:50:9a:7f:
                    22:02:4f:33:54:3a:97:54:4d:a7:58:5d:7f:ff:af:
                    54:6d:a4:97:0e:20:6c:f6:74:ac:ac:95:b1:be:ec:
                    1e:f3
                Exponent: 65537 (0x10001)
        X509v3 extensions:
            X509v3 Basic Constraints: 
                CA:FALSE
            X509v3 Subject Key Identifier: 
                FA:F4:19:40:F1:88:0C:BD:37:73:21:87:6F:70:0B:10:B9:F6:F2:5B
            X509v3 Authority Key Identifier: 
                keyid:C0:7F:6B:EE:57:32:DD:8F:31:4F:EB:8A:51:68:AE:5E:6B:56:53:07
                DirName:/CN=scada
                serial:46:17:2E:7E:D8:6A:54:BE:60:9D:BA:81:FD:49:6E:81:F7:03:71:4E

            X509v3 Extended Key Usage: 
                TLS Web Server Authentication
            X509v3 Key Usage: 
                Digital Signature, Key Encipherment
            X509v3 Subject Alternative Name: 
                DNS:scada
    Signature Algorithm: sha256WithRSAEncryption
         90:e9:7b:a3:66:51:10:0a:cc:40:ae:80:59:a5:0e:d9:2a:d4:
         14:45:03:de:cd:96:11:70:72:21:d2:5f:f9:00:5e:9a:3e:b0:
         6c:4a:44:29:f1:96:ca:3f:58:97:75:54:97:ee:12:44:11:1d:
         c9:f2:14:3a:97:6c:59:4b:a3:69:8d:a1:7f:05:6b:6e:83:19:
         41:67:e1:91:c1:c6:34:44:0a:7e:38:c3:ff:b4:e0:b3:e1:6e:
         72:f2:b5:5e:c9:b7:23:be:17:b1:e7:0f:21:ee:f0:74:6b:00:
         18:07:c3:5c:92:ed:88:7f:c7:0b:15:4f:86:c3:ad:46:32:e5:
         c6:22:d6:02:b0:89:34:0c:82:25:de:60:36:b0:e2:0f:54:08:
         a0:9c:73:eb:20:50:ef:d2:4f:25:60:18:2f:f6:e3:d0:2e:ea:
         e7:35:fd:aa:3b:f9:bf:25:84:11:57:0b:f6:e6:bc:2d:b1:35:
         7d:1b:c9:3f:db:90:71:ae:39:d7:e6:c0:40:97:c2:76:52:90:
         c0:e3:ee:ba:98:01:14:c5:84:54:d9:08:2d:05:b2:3e:70:a8:
         bd:18:e2:2d:76:85:32:21:21:37:11:f9:40:e0:df:82:28:a4:
         f1:1f:1b:be:c1:9f:b5:f8:fe:da:e5:aa:e0:03:dd:77:02:19:
         7e:37:20:7c
-----BEGIN CERTIFICATE-----
MIIDWTCCAkGgAwIBAgIQRM2GnjQbSkkAFhB0htuFkTANBgkqhkiG9w0BAQsFADAQ
MQ4wDAYDVQQDDAVzY2FkYTAeFw0yMTA1MjMxNTE4NDhaFw0yNDA1MDcxNTE4NDha
MBAxDjAMBgNVBAMMBXNjYWRhMIIBIjANBgkqhkiG9w0BAQEFAAOCAQ8AMIIBCgKC
AQEA5ehIVLPBeV0DmM54ECNt0wXoblGHwhRQdAT9PXj1pdEhuJfjEd7/h6qJdLaG
M+hCC8dSAeHfwjDxJmPhoNHmTsLl5HLUDN9KSm2L0tVTIiR3QMqBnum85aM0d+dk
Tap6jwWwPlgLZk/5IGVnVnWxzqj7EJBY79+WXmZtG8klbn8Jmm3sUXjeAipxML4n
+FHPlVm9XFxG/viRVKSESO/tkrJKg95vlC3TBDcZE5AyR25qUNyp+QVkr8g+AhMD
SVfmbfPcx+yHhOh78kcRMI2ZG8yd0ocyOlbgSapUWlxQmn8iAk8zVDqXVE2nWF1/
/69UbaSXDiBs9nSsrJWxvuwe8wIDAQABo4GuMIGrMAkGA1UdEwQCMAAwHQYDVR0O
BBYEFPr0GUDxiAy9N3Mhh29wCxC59vJbMEsGA1UdIwREMEKAFMB/a+5XMt2PMU/r
ilForl5rVlMHoRSkEjAQMQ4wDAYDVQQDDAVzY2FkYYIURhcufthqVL5gnbqB/Ulu
gfcDcU4wEwYDVR0lBAwwCgYIKwYBBQUHAwEwCwYDVR0PBAQDAgWgMBAGA1UdEQQJ
MAeCBXNjYWRhMA0GCSqGSIb3DQEBCwUAA4IBAQCQ6XujZlEQCsxAroBZpQ7ZKtQU
RQPezZYRcHIh0l/5AF6aPrBsSkQp8ZbKP1iXdVSX7hJEER3J8hQ6l2xZS6NpjaF/
BWtugxlBZ+GRwcY0RAp+OMP/tOCz4W5y8rVeybcjvhex5w8h7vB0awAYB8Ncku2I
f8cLFU+Gw61GMuXGItYCsIk0DIIl3mA2sOIPVAignHPrIFDv0k8lYBgv9uPQLurn
Nf2qO/m/JYQRVwv25rwtsTV9G8k/25BxrjnX5sBAl8J2UpDA4+66mAEUxYRU2Qgt
BbI+cKi9GOItdoUyISE3EflA4N+CKKTxHxu+wZ+1+P7a5argA913Ahl+NyB8
-----END CERTIFICATE-----
