Certificate:
    Data:
        Version: 3 (0x2)
        Serial Number:
            60:b7:1e:a6:52:52:42:80:47:79:a1:35:a3:a9:ad:8e
        Signature Algorithm: sha256WithRSAEncryption
        Issuer: CN=scada
        Validity
            Not Before: May 23 15:28:56 2021 GMT
            Not After : May  7 15:28:56 2024 GMT
        Subject: CN=sub2
        Subject Public Key Info:
            Public Key Algorithm: rsaEncryption
                RSA Public-Key: (2048 bit)
                Modulus:
                    00:d8:44:23:7e:7c:85:1b:15:93:88:66:f5:34:7f:
                    48:fc:68:7e:2f:d1:b3:e6:5b:10:dc:7f:dc:e7:77:
                    1c:b5:9b:d3:ff:4f:ca:a0:f0:97:4b:a6:cf:ea:ff:
                    ba:3f:d2:53:e1:52:eb:89:38:65:a6:a7:27:99:fe:
                    1d:1d:3d:8c:93:42:18:cf:12:43:f5:90:33:77:30:
                    3e:87:32:ff:57:b2:1a:21:ac:3c:ab:22:53:b0:9b:
                    25:27:af:54:12:13:06:49:c2:25:9c:d2:a5:28:f9:
                    99:12:02:55:e0:4a:d3:6d:c7:dd:e2:60:4f:02:44:
                    32:69:34:f3:95:09:e8:29:44:c3:c3:9d:e6:63:d4:
                    22:49:f9:08:fe:3c:a8:46:27:51:cb:d1:64:63:ae:
                    b6:7d:9b:17:68:20:e5:b5:0e:8c:b6:22:76:94:d8:
                    cf:14:c4:ed:95:45:dd:11:9d:2a:d6:3c:91:f6:18:
                    32:95:a2:9c:cf:10:f9:da:55:ad:f1:38:a1:f6:d1:
                    17:0d:59:ce:b2:c7:93:63:48:6a:dd:e1:85:9b:9d:
                    f5:2d:53:86:0b:e6:c2:a2:43:0d:ac:7a:a6:ea:ad:
                    ef:49:02:cc:56:d8:7d:a5:eb:a1:20:26:32:7a:ed:
                    dc:ab:ba:14:8a:7d:a6:77:e1:83:3b:8f:4b:5d:6c:
                    ac:57
                Exponent: 65537 (0x10001)
        X509v3 extensions:
            X509v3 Basic Constraints: 
                CA:FALSE
            X509v3 Subject Key Identifier: 
                81:9D:E8:AA:55:75:62:5A:24:0C:88:D8:92:DF:1F:45:25:B7:A1:B7
            X509v3 Authority Key Identifier: 
                keyid:C0:7F:6B:EE:57:32:DD:8F:31:4F:EB:8A:51:68:AE:5E:6B:56:53:07
                DirName:/CN=scada
                serial:46:17:2E:7E:D8:6A:54:BE:60:9D:BA:81:FD:49:6E:81:F7:03:71:4E

            X509v3 Extended Key Usage: 
                TLS Web Client Authentication
            X509v3 Key Usage: 
                Digital Signature
    Signature Algorithm: sha256WithRSAEncryption
         25:46:56:c7:34:52:b1:05:80:3e:58:31:57:a7:73:60:41:87:
         6a:32:48:9f:4d:e0:47:85:73:93:ff:0a:52:73:db:f5:fc:44:
         ae:b3:80:09:f5:fe:73:c8:f2:8c:67:7e:63:3e:56:d1:13:83:
         22:d1:76:a2:7e:d6:fe:3c:9f:82:81:1a:fb:ea:d9:b1:e9:19:
         79:9d:db:79:3e:15:2b:76:af:4e:50:95:a3:83:6c:61:7a:e1:
         78:d9:f8:34:e8:cf:2b:3e:64:57:69:f3:59:97:dc:65:fa:bd:
         d5:20:84:23:68:24:f5:6e:4e:54:61:70:5a:b8:dc:3e:fc:3b:
         92:02:d4:07:83:70:a9:17:56:37:62:87:41:c5:6b:64:c1:ab:
         37:d7:a5:ca:42:d2:3d:0b:29:f6:94:59:9e:b4:59:eb:8e:e4:
         9e:36:eb:a6:ee:65:37:fa:ec:0b:2f:41:6a:43:25:69:10:70:
         7c:38:38:93:a8:25:91:83:7c:26:74:00:9c:e5:6c:fb:11:8b:
         2e:fa:3a:17:11:db:1e:18:13:bd:f6:40:af:3c:4c:2c:64:c7:
         b2:5a:88:1c:8f:b5:38:25:9d:94:72:bc:8b:99:ba:a3:b6:cf:
         1f:e3:df:ee:6d:be:72:a4:43:ee:e2:1f:a3:f3:a8:5d:e6:e9:
         a9:98:62:05
-----BEGIN CERTIFICATE-----
MIIDRjCCAi6gAwIBAgIQYLceplJSQoBHeaE1o6mtjjANBgkqhkiG9w0BAQsFADAQ
MQ4wDAYDVQQDDAVzY2FkYTAeFw0yMTA1MjMxNTI4NTZaFw0yNDA1MDcxNTI4NTZa
MA8xDTALBgNVBAMMBHN1YjIwggEiMA0GCSqGSIb3DQEBAQUAA4IBDwAwggEKAoIB
AQDYRCN+fIUbFZOIZvU0f0j8aH4v0bPmWxDcf9zndxy1m9P/T8qg8JdLps/q/7o/
0lPhUuuJOGWmpyeZ/h0dPYyTQhjPEkP1kDN3MD6HMv9XshohrDyrIlOwmyUnr1QS
EwZJwiWc0qUo+ZkSAlXgStNtx93iYE8CRDJpNPOVCegpRMPDneZj1CJJ+Qj+PKhG
J1HL0WRjrrZ9mxdoIOW1Doy2InaU2M8UxO2VRd0RnSrWPJH2GDKVopzPEPnaVa3x
OKH20RcNWc6yx5NjSGrd4YWbnfUtU4YL5sKiQw2seqbqre9JAsxW2H2l66EgJjJ6
7dyruhSKfaZ34YM7j0tdbKxXAgMBAAGjgZwwgZkwCQYDVR0TBAIwADAdBgNVHQ4E
FgQUgZ3oqlV1YlokDIjYkt8fRSW3obcwSwYDVR0jBEQwQoAUwH9r7lcy3Y8xT+uK
UWiuXmtWUwehFKQSMBAxDjAMBgNVBAMMBXNjYWRhghRGFy5+2GpUvmCduoH9SW6B
9wNxTjATBgNVHSUEDDAKBggrBgEFBQcDAjALBgNVHQ8EBAMCB4AwDQYJKoZIhvcN
AQELBQADggEBACVGVsc0UrEFgD5YMVenc2BBh2oySJ9N4EeFc5P/ClJz2/X8RK6z
gAn1/nPI8oxnfmM+VtETgyLRdqJ+1v48n4KBGvvq2bHpGXmd23k+FSt2r05QlaOD
bGF64XjZ+DTozys+ZFdp81mX3GX6vdUghCNoJPVuTlRhcFq43D78O5IC1AeDcKkX
Vjdih0HFa2TBqzfXpcpC0j0LKfaUWZ60WeuO5J4266buZTf67AsvQWpDJWkQcHw4
OJOoJZGDfCZ0AJzlbPsRiy76OhcR2x4YE732QK88TCxkx7JaiByPtTglnZRyvIuZ
uqO2zx/j3+5tvnKkQ+7iH6PzqF3m6amYYgU=
-----END CERTIFICATE-----
